target datalayout = "e-m:e-p270:32:32-p271:32:32-p272:64:64-i64:64-i128:128-f80:128-n8:16:32:64-S128"
target triple = "x86_64-pc-linux-gnu"

%struct.pmix_object_t = type { %union.pthread_mutex_t, ptr, i32, %struct.pmix_tma }
%union.pthread_mutex_t = type { %struct.__pthread_mutex_s }
%struct.__pthread_mutex_s = type { i32, i32, i32, i32, i32, i16, i16, %struct.__pthread_internal_list }
%struct.__pthread_internal_list = type { ptr, ptr }
%struct.pmix_tma = type { ptr, ptr, ptr, ptr, ptr, ptr, ptr, ptr }
%struct.pmix_lock_t = type { i32, %struct.pmix_mutex_t, %union.pthread_cond_t, i8 }
%struct.pmix_mutex_t = type { %struct.pmix_object_t, %union.pthread_mutex_t }
%union.pthread_cond_t = type { %struct.__pthread_cond_s }
%struct.__pthread_cond_s = type { %union.__atomic_wide_counter, %union.__atomic_wide_counter, [2 x i32], [2 x i32], i32, i32, [2 x i32] }
%union.__atomic_wide_counter = type { i64 }
%struct.pmix_info = type { [512 x i8], i32, %struct.pmix_value }
%struct.pmix_value = type { i16, %union.anon }
%union.anon = type { %struct.pmix_envar_t }
%struct.pmix_envar_t = type { ptr, ptr, i8 }
%struct.pmix_shift_caddy_t = type { %struct.pmix_object_t, %struct.event, %struct.pmix_lock_t, i32, ptr, i64, i32, %struct.pmix_name_t, ptr, ptr, ptr, i64, ptr, ptr, i64, ptr, i64, ptr, ptr, ptr, ptr, ptr, ptr, i8, %union.anon.9, ptr, i64 }
%struct.event = type { %struct.event_callback, %union.anon.2, i32, ptr, %union.anon.4, i16, i16, %struct.timeval }
%struct.event_callback = type { %struct.anon.0, i16, i8, i8, %union.anon.1, ptr }
%struct.anon.0 = type { ptr, ptr }
%union.anon.1 = type { ptr }
%union.anon.2 = type { %struct.anon.3 }
%struct.anon.3 = type { ptr, ptr }
%union.anon.4 = type { %struct.anon.5 }
%struct.anon.5 = type { %struct.anon.6, %struct.timeval }
%struct.anon.6 = type { ptr, ptr }
%struct.timeval = type { i64, i64 }
%struct.pmix_name_t = type { ptr, i32 }
%union.anon.9 = type { ptr }

@.str.71 = private unnamed_addr constant [14 x i8] c"pmix.evobject\00", align 1

; Function Attrs: inlinehint nounwind uwtable
define internal void @pmix_mutex_unlock(ptr noundef %0) #4 {
  %2 = alloca ptr, align 8
  store ptr %0, ptr %2, align 8, !tbaa !91
  %3 = load ptr, ptr %2, align 8, !tbaa !91
  %4 = getelementptr inbounds nuw %struct.pmix_mutex_t, ptr %3, i32 0, i32 1
  %5 = call i32 @pthread_mutex_unlock(ptr noundef %4) #11
  ret void
}

; Function Attrs: inlinehint nounwind uwtable
define internal void @pmix_atomic_wmb() #4 {
  fence release
  ret void
}

; Function Attrs: inlinehint nounwind uwtable
define internal void @pmix_mutex_lock(ptr noundef %0) #4 {
  %2 = alloca ptr, align 8
  store ptr %0, ptr %2, align 8, !tbaa !91
  %3 = load ptr, ptr %2, align 8, !tbaa !91
  %4 = getelementptr inbounds nuw %struct.pmix_mutex_t, ptr %3, i32 0, i32 1
  %5 = call i32 @pthread_mutex_lock(ptr noundef %4) #11
  ret void
}

; Function Attrs: nounwind uwtable
define internal void @defhandler(i64 noundef %0, i32 noundef %1, ptr noundef %2, ptr noundef %3, i64 noundef %4, ptr noundef %5, i64 noundef %6, ptr noundef %7, ptr noundef %8) #0 {
  %10 = alloca i64, align 8
  %11 = alloca i32, align 4
  %12 = alloca ptr, align 8
  %13 = alloca ptr, align 8
  %14 = alloca i64, align 8
  %15 = alloca ptr, align 8
  %16 = alloca i64, align 8
  %17 = alloca ptr, align 8
  %18 = alloca ptr, align 8
  %19 = alloca ptr, align 8
  %20 = alloca i64, align 8
  store i64 %0, ptr %10, align 8, !tbaa !34
  store i32 %1, ptr %11, align 4, !tbaa !4
  store ptr %2, ptr %12, align 8, !tbaa !89
  store ptr %3, ptr %13, align 8, !tbaa !40
  store i64 %4, ptr %14, align 8, !tbaa !34
  store ptr %5, ptr %15, align 8, !tbaa !40
  store i64 %6, ptr %16, align 8, !tbaa !34
  store ptr %7, ptr %17, align 8, !tbaa !11
  store ptr %8, ptr %18, align 8, !tbaa !11
  call void @llvm.lifetime.start.p0(i64 8, ptr %19) #11
  store ptr null, ptr %19, align 8, !tbaa !11
  call void @llvm.lifetime.start.p0(i64 8, ptr %20) #11
  %21 = load i32, ptr %11, align 4, !tbaa !4
  %22 = icmp eq i32 -25, %21
  br i1 %22, label %26, label %23

23:                                               ; preds = %9
  %24 = load i32, ptr %11, align 4, !tbaa !4
  %25 = icmp eq i32 -61, %24
  br i1 %25, label %26, label %77

26:                                               ; preds = %23, %9
  %27 = load ptr, ptr %13, align 8, !tbaa !40
  %28 = icmp ne ptr null, %27
  br i1 %28, label %29, label %53

29:                                               ; preds = %26
  store i64 0, ptr %20, align 8, !tbaa !34
  br label %30

30:                                               ; preds = %49, %29
  %31 = load i64, ptr %20, align 8, !tbaa !34
  %32 = load i64, ptr %14, align 8, !tbaa !34
  %33 = icmp ult i64 %31, %32
  br i1 %33, label %34, label %52

34:                                               ; preds = %30
  %35 = load ptr, ptr %13, align 8, !tbaa !40
  %36 = load i64, ptr %20, align 8, !tbaa !34
  %37 = getelementptr inbounds nuw %struct.pmix_info, ptr %35, i64 %36
  %38 = getelementptr inbounds nuw %struct.pmix_info, ptr %37, i32 0, i32 0
  %39 = getelementptr inbounds [512 x i8], ptr %38, i64 0, i64 0
  %40 = call zeroext i1 @PMIx_Check_key(ptr noundef %39, ptr noundef @.str.71)
  br i1 %40, label %41, label %48

41:                                               ; preds = %34
  %42 = load ptr, ptr %13, align 8, !tbaa !40
  %43 = load i64, ptr %20, align 8, !tbaa !34
  %44 = getelementptr inbounds nuw %struct.pmix_info, ptr %42, i64 %43
  %45 = getelementptr inbounds nuw %struct.pmix_info, ptr %44, i32 0, i32 2
  %46 = getelementptr inbounds nuw %struct.pmix_value, ptr %45, i32 0, i32 1
  %47 = load ptr, ptr %46, align 8, !tbaa !14
  store ptr %47, ptr %19, align 8, !tbaa !11
  br label %48

48:                                               ; preds = %41, %34
  br label %49

49:                                               ; preds = %48
  %50 = load i64, ptr %20, align 8, !tbaa !34
  %51 = add i64 %50, 1
  store i64 %51, ptr %20, align 8, !tbaa !34
  br label %30, !llvm.loop !90

52:                                               ; preds = %30
  br label %53

53:                                               ; preds = %52, %26
  %54 = load ptr, ptr %19, align 8, !tbaa !11
  %55 = icmp eq ptr null, %54
  br i1 %55, label %56, label %57

56:                                               ; preds = %53
  call void @exit(i32 noundef 1) #12
  unreachable

57:                                               ; preds = %53
  %58 = load i32, ptr %11, align 4, !tbaa !4
  %59 = load ptr, ptr %19, align 8, !tbaa !11
  %60 = getelementptr inbounds nuw %struct.pmix_shift_caddy_t, ptr %59, i32 0, i32 3
  store i32 %58, ptr %60, align 8, !tbaa !73
  br label %61

61:                                               ; preds = %57
  %62 = load ptr, ptr %19, align 8, !tbaa !11
  %63 = getelementptr inbounds nuw %struct.pmix_shift_caddy_t, ptr %62, i32 0, i32 2
  %64 = getelementptr inbounds nuw %struct.pmix_lock_t, ptr %63, i32 0, i32 1
  call void @pmix_mutex_lock(ptr noundef %64)
  %65 = load ptr, ptr %19, align 8, !tbaa !11
  %66 = getelementptr inbounds nuw %struct.pmix_shift_caddy_t, ptr %65, i32 0, i32 2
  %67 = getelementptr inbounds nuw %struct.pmix_lock_t, ptr %66, i32 0, i32 3
  store volatile i8 0, ptr %67, align 8, !tbaa !71
  call void @pmix_atomic_wmb()
  %68 = load ptr, ptr %19, align 8, !tbaa !11
  %69 = getelementptr inbounds nuw %struct.pmix_shift_caddy_t, ptr %68, i32 0, i32 2
  %70 = getelementptr inbounds nuw %struct.pmix_lock_t, ptr %69, i32 0, i32 2
  %71 = call i32 @pthread_cond_broadcast(ptr noundef %70) #11
  %72 = load ptr, ptr %19, align 8, !tbaa !11
  %73 = getelementptr inbounds nuw %struct.pmix_shift_caddy_t, ptr %72, i32 0, i32 2
  %74 = getelementptr inbounds nuw %struct.pmix_lock_t, ptr %73, i32 0, i32 1
  call void @pmix_mutex_unlock(ptr noundef %74)
  br label %75

75:                                               ; preds = %61
  br label %76

76:                                               ; preds = %75
  br label %77

77:                                               ; preds = %76, %23
  %78 = load ptr, ptr %17, align 8, !tbaa !11
  %79 = icmp ne ptr null, %78
  br i1 %79, label %80, label %83

80:                                               ; preds = %77
  %81 = load ptr, ptr %17, align 8, !tbaa !11
  %82 = load ptr, ptr %18, align 8, !tbaa !11
  call void %81(i32 noundef -334, ptr noundef null, i64 noundef 0, ptr noundef null, ptr noundef null, ptr noundef %82)
  br label %83

83:                                               ; preds = %80, %77
  call void @llvm.lifetime.end.p0(i64 8, ptr %20) #11
  call void @llvm.lifetime.end.p0(i64 8, ptr %19) #11
  ret void
}