; Function Attrs: nounwind uwtable
define internal void @defhandler(i64 %0, i32 noundef %1, ptr readnone captures(none) %2, ptr noundef %3, i64 noundef %4, ptr readnone captures(none) %5, i64 %6, ptr noundef readonly captures(address_is_null) %7, ptr noundef %8) #0 {
  switch i32 %1, label %27 [
    i32 -25, label %10
    i32 -61, label %10
  ]

10:                                               ; preds = %9, %9
  %.not = icmp eq ptr %3, null
  %.not27 = icmp eq i64 %4, 0
  %or.cond = or i1 %.not, %.not27
  br i1 %or.cond, label %.thread, label %.lr.ph

.lr.ph:                                           ; preds = %10, %16
  %.026 = phi i64 [ %17, %16 ], [ 0, %10 ]
  %.125 = phi ptr [ %.2, %16 ], [ null, %10 ]
  %11 = getelementptr inbounds nuw %struct.pmix_info, ptr %3, i64 %.026
  %12 = tail call zeroext i1 @PMIx_Check_key(ptr noundef nonnull %11, ptr noundef nonnull @.str.71) #16
  br i1 %12, label %13, label %16

13:                                               ; preds = %.lr.ph
  %14 = getelementptr inbounds nuw i8, ptr %11, i64 528
  %15 = load ptr, ptr %14, align 8, !tbaa !75
  br label %16

16:                                               ; preds = %.lr.ph, %13
  %.2 = phi ptr [ %15, %13 ], [ %.125, %.lr.ph ]
  %17 = add nuw i64 %.026, 1
  %exitcond.not = icmp eq i64 %17, %4
  br i1 %exitcond.not, label %._crit_edge, label %.lr.ph, !llvm.loop !76

._crit_edge:                                      ; preds = %16
  %18 = icmp eq ptr %.2, null
  br i1 %18, label %.thread, label %19

.thread:                                          ; preds = %10, %._crit_edge
  tail call void @exit(i32 noundef 1) #23
  unreachable

19:                                               ; preds = %._crit_edge
  %20 = getelementptr inbounds nuw i8, ptr %.2, i64 472
  store i32 %1, ptr %20, align 8, !tbaa !74
  %21 = getelementptr inbounds nuw i8, ptr %.2, i64 376
  %22 = tail call i32 @pthread_mutex_lock(ptr noundef nonnull %21) #16
  %23 = getelementptr inbounds nuw i8, ptr %.2, i64 464
  store volatile i8 0, ptr %23, align 8, !tbaa !72
  fence release
  %24 = getelementptr inbounds nuw i8, ptr %.2, i64 416
  %25 = tail call i32 @pthread_cond_broadcast(ptr noundef nonnull %24) #16
  %26 = tail call i32 @pthread_mutex_unlock(ptr noundef nonnull %21) #16
  br label %27

27:                                               ; preds = %9, %19
  %.not23 = icmp eq ptr %7, null
  br i1 %.not23, label %29, label %28

28:                                               ; preds = %27
  tail call void %7(i32 noundef -334, ptr noundef null, i64 noundef 0, ptr noundef null, ptr noundef null, ptr noundef %8) #16
  br label %29

29:                                               ; preds = %28, %27
  ret void
}